target datalayout = "e-m:e-p270:32:32-p271:32:32-p272:64:64-i64:64-i128:128-f80:128-n8:16:32:64-S128"
target triple = "x86_64-pc-linux-gnu"

%"class.cmsys::RegularExpression" = type <{ %"class.cmsys::RegularExpressionMatch", i8, i8, [6 x i8], ptr, i64, ptr, i32, [4 x i8] }>
%"class.cmsys::RegularExpressionMatch" = type { [32 x ptr], [32 x ptr], ptr }
%"class.std::__cxx11::basic_string" = type { %"struct.std::__cxx11::basic_string<char>::_Alloc_hider", i64, %union.anon }
%"struct.std::__cxx11::basic_string<char>::_Alloc_hider" = type { ptr }
%union.anon = type { i64, [8 x i8] }
%"struct.(anonymous namespace)::cmQtAutoMocUicT::KeyExpT" = type { %"class.std::__cxx11::basic_string", %"class.cmsys::RegularExpression" }

; Function Attrs: mustprogress uwtable
define linkonce_odr dso_local noundef zeroext i1 @_ZN5cmsys17RegularExpression7compileERKNSt7__cxx1112basic_stringIcSt11char_traitsIcESaIcEEE(ptr noundef nonnull align 8 dereferenceable(556) %0, ptr noundef nonnull align 8 dereferenceable(32) %1) #4 comdat align 2 {
  %3 = alloca ptr, align 8
  %4 = alloca ptr, align 8
  store ptr %0, ptr %3, align 8
  store ptr %1, ptr %4, align 8
  %5 = load ptr, ptr %3, align 8
  %6 = load ptr, ptr %4, align 8
  %7 = call noundef ptr @_ZNKSt7__cxx1112basic_stringIcSt11char_traitsIcESaIcEE5c_strEv(ptr noundef nonnull align 8 dereferenceable(32) %6) #3
  %8 = call noundef zeroext i1 @_ZN5cmsys17RegularExpression7compileEPKc(ptr noundef nonnull align 8 dereferenceable(556) %5, ptr noundef %7)
  ret i1 %8
}

; Function Attrs: mustprogress nounwind uwtable
define linkonce_odr dso_local void @_ZN5cmsys22RegularExpressionMatchC2Ev(ptr noundef nonnull align 8 dereferenceable(520) %0) unnamed_addr #6 comdat align 2 {
  %2 = alloca ptr, align 8
  store ptr %0, ptr %2, align 8
  %3 = load ptr, ptr %2, align 8
  %4 = getelementptr inbounds %"class.cmsys::RegularExpressionMatch", ptr %3, i32 0, i32 0
  call void @llvm.memset.p0.i64(ptr align 8 %4, i8 0, i64 256, i1 false)
  %5 = getelementptr inbounds %"class.cmsys::RegularExpressionMatch", ptr %3, i32 0, i32 1
  call void @llvm.memset.p0.i64(ptr align 8 %5, i8 0, i64 256, i1 false)
  %6 = getelementptr inbounds %"class.cmsys::RegularExpressionMatch", ptr %3, i32 0, i32 2
  store ptr null, ptr %6, align 8
  ret void
}

; Function Attrs: mustprogress uwtable
define linkonce_odr dso_local void @_ZN5cmsys17RegularExpressionC2ERKNSt7__cxx1112basic_stringIcSt11char_traitsIcESaIcEEE(ptr noundef nonnull align 8 dereferenceable(556) %0, ptr noundef nonnull align 8 dereferenceable(32) %1) unnamed_addr #4 comdat align 2 {
  %3 = alloca ptr, align 8
  %4 = alloca ptr, align 8
  store ptr %0, ptr %3, align 8
  store ptr %1, ptr %4, align 8
  %5 = load ptr, ptr %3, align 8
  %6 = getelementptr inbounds %"class.cmsys::RegularExpression", ptr %5, i32 0, i32 0
  call void @_ZN5cmsys22RegularExpressionMatchC2Ev(ptr noundef nonnull align 8 dereferenceable(520) %6)
  %7 = getelementptr inbounds %"class.cmsys::RegularExpression", ptr %5, i32 0, i32 1
  store i8 0, ptr %7, align 8
  %8 = getelementptr inbounds %"class.cmsys::RegularExpression", ptr %5, i32 0, i32 2
  store i8 0, ptr %8, align 1
  %9 = getelementptr inbounds %"class.cmsys::RegularExpression", ptr %5, i32 0, i32 4
  store ptr null, ptr %9, align 8
  %10 = getelementptr inbounds %"class.cmsys::RegularExpression", ptr %5, i32 0, i32 6
  store ptr null, ptr %10, align 8
  %11 = getelementptr inbounds %"class.cmsys::RegularExpression", ptr %5, i32 0, i32 7
  store i32 0, ptr %11, align 8
  %12 = load ptr, ptr %4, align 8
  %13 = call noundef zeroext i1 @_ZN5cmsys17RegularExpression7compileERKNSt7__cxx1112basic_stringIcSt11char_traitsIcESaIcEEE(ptr noundef nonnull align 8 dereferenceable(556) %5, ptr noundef nonnull align 8 dereferenceable(32) %12)
  ret void
}

; Function Attrs: mustprogress uwtable
define internal void @_ZN12_GLOBAL__N_115cmQtAutoMocUicT7KeyExpTC2ENSt7__cxx1112basic_stringIcSt11char_traitsIcESaIcEEERKS7_(ptr noundef nonnull align 8 dereferenceable(592) %0, ptr noundef %1, ptr noundef nonnull align 8 dereferenceable(32) %2) unnamed_addr #4 align 2 personality ptr @__gxx_personality_v0 {
  %4 = alloca ptr, align 8
  %5 = alloca ptr, align 8
  %6 = alloca ptr, align 8
  %7 = alloca ptr, align 8
  %8 = alloca i32, align 4
  store ptr %0, ptr %4, align 8
  store ptr %1, ptr %5, align 8
  store ptr %2, ptr %6, align 8
  %9 = load ptr, ptr %4, align 8
  %10 = getelementptr inbounds %"struct.(anonymous namespace)::cmQtAutoMocUicT::KeyExpT", ptr %9, i32 0, i32 0
  call void @_ZNSt7__cxx1112basic_stringIcSt11char_traitsIcESaIcEEC1EOS4_(ptr noundef nonnull align 8 dereferenceable(32) %10, ptr noundef nonnull align 8 dereferenceable(32) %1) #3
  %11 = getelementptr inbounds %"struct.(anonymous namespace)::cmQtAutoMocUicT::KeyExpT", ptr %9, i32 0, i32 1
  %12 = load ptr, ptr %6, align 8
  invoke void @_ZN5cmsys17RegularExpressionC2ERKNSt7__cxx1112basic_stringIcSt11char_traitsIcESaIcEEE(ptr noundef nonnull align 8 dereferenceable(556) %11, ptr noundef nonnull align 8 dereferenceable(32) %12)
          to label %13 unwind label %14

13:                                               ; preds = %3
  ret void

14:                                               ; preds = %3
  %15 = landingpad { ptr, i32 }
          cleanup
  %16 = extractvalue { ptr, i32 } %15, 0
  store ptr %16, ptr %7, align 8
  %17 = extractvalue { ptr, i32 } %15, 1
  store i32 %17, ptr %8, align 4
  call void @_ZNSt7__cxx1112basic_stringIcSt11char_traitsIcESaIcEED1Ev(ptr noundef nonnull align 8 dereferenceable(32) %10) #3
  br label %18

18:                                               ; preds = %14
  %19 = load ptr, ptr %7, align 8
  %20 = load i32, ptr %8, align 4
  %21 = insertvalue { ptr, i32 } poison, ptr %19, 0
  %22 = insertvalue { ptr, i32 } %21, i32 %20, 1
  resume { ptr, i32 } %22
}

; Function Attrs: mustprogress uwtable
define internal void @_ZNSt15__new_allocatorIN12_GLOBAL__N_115cmQtAutoMocUicT7KeyExpTEE9constructIS2_JRKNSt7__cxx1112basic_stringIcSt11char_traitsIcESaIcEEESC_EEEvPT_DpOT0_(ptr noundef nonnull align 1 dereferenceable(1) %0, ptr noundef %1, ptr noundef nonnull align 8 dereferenceable(32) %2, ptr noundef nonnull align 8 dereferenceable(32) %3) #4 align 2 personality ptr @__gxx_personality_v0 {
  %5 = alloca ptr, align 8
  %6 = alloca ptr, align 8
  %7 = alloca ptr, align 8
  %8 = alloca ptr, align 8
  %9 = alloca %"class.std::__cxx11::basic_string", align 8
  %10 = alloca ptr, align 8
  %11 = alloca i32, align 4
  store ptr %0, ptr %5, align 8
  store ptr %1, ptr %6, align 8
  store ptr %2, ptr %7, align 8
  store ptr %3, ptr %8, align 8
  %12 = load ptr, ptr %6, align 8
  %13 = load ptr, ptr %7, align 8
  call void @_ZNSt7__cxx1112basic_stringIcSt11char_traitsIcESaIcEEC1ERKS4_(ptr noundef nonnull align 8 dereferenceable(32) %9, ptr noundef nonnull align 8 dereferenceable(32) %13)
  %14 = load ptr, ptr %8, align 8
  invoke void @_ZN12_GLOBAL__N_115cmQtAutoMocUicT7KeyExpTC2ENSt7__cxx1112basic_stringIcSt11char_traitsIcESaIcEEERKS7_(ptr noundef nonnull align 8 dereferenceable(592) %12, ptr noundef %9, ptr noundef nonnull align 8 dereferenceable(32) %14)
          to label %15 unwind label %16

15:                                               ; preds = %4
  call void @_ZNSt7__cxx1112basic_stringIcSt11char_traitsIcESaIcEED1Ev(ptr noundef nonnull align 8 dereferenceable(32) %9) #3
  ret void

16:                                               ; preds = %4
  %17 = landingpad { ptr, i32 }
          cleanup
  %18 = extractvalue { ptr, i32 } %17, 0
  store ptr %18, ptr %10, align 8
  %19 = extractvalue { ptr, i32 } %17, 1
  store i32 %19, ptr %11, align 4
  call void @_ZNSt7__cxx1112basic_stringIcSt11char_traitsIcESaIcEED1Ev(ptr noundef nonnull align 8 dereferenceable(32) %9) #3
  br label %20

20:                                               ; preds = %16
  %21 = load ptr, ptr %10, align 8
  %22 = load i32, ptr %11, align 4
  %23 = insertvalue { ptr, i32 } poison, ptr %21, 0
  %24 = insertvalue { ptr, i32 } %23, i32 %22, 1
  resume { ptr, i32 } %24
}

; Function Attrs: mustprogress uwtable
define internal void @_ZNSt16allocator_traitsISaIN12_GLOBAL__N_115cmQtAutoMocUicT7KeyExpTEEE9constructIS2_JRKNSt7__cxx1112basic_stringIcSt11char_traitsIcESaIcEEESD_EEEvRS3_PT_DpOT0_(ptr noundef nonnull align 1 dereferenceable(1) %0, ptr noundef %1, ptr noundef nonnull align 8 dereferenceable(32) %2, ptr noundef nonnull align 8 dereferenceable(32) %3) #4 align 2 {
  %5 = alloca ptr, align 8
  %6 = alloca ptr, align 8
  %7 = alloca ptr, align 8
  %8 = alloca ptr, align 8
  store ptr %0, ptr %5, align 8
  store ptr %1, ptr %6, align 8
  store ptr %2, ptr %7, align 8
  store ptr %3, ptr %8, align 8
  %9 = load ptr, ptr %5, align 8
  %10 = load ptr, ptr %6, align 8
  %11 = load ptr, ptr %7, align 8
  %12 = load ptr, ptr %8, align 8
  call void @_ZNSt15__new_allocatorIN12_GLOBAL__N_115cmQtAutoMocUicT7KeyExpTEE9constructIS2_JRKNSt7__cxx1112basic_stringIcSt11char_traitsIcESaIcEEESC_EEEvPT_DpOT0_(ptr noundef nonnull align 1 dereferenceable(1) %9, ptr noundef %10, ptr noundef nonnull align 8 dereferenceable(32) %11, ptr noundef nonnull align 8 dereferenceable(32) %12)
  ret void
}